; Function Attrs: mustprogress nofree norecurse nosync nounwind willreturn memory(argmem: readwrite) uwtable
define hidden void @ir_fix_thunk(ptr nocapture noundef %0, ptr noundef %1) local_unnamed_addr #13 {
  %3 = getelementptr inbounds i8, ptr %0, i64 2
  %4 = getelementptr inbounds i8, ptr %0, i64 6
  %5 = load i32, ptr %3, align 4
  %6 = sext i32 %5 to i64
  %7 = getelementptr inbounds i8, ptr %4, i64 %6
  store ptr %1, ptr %7, align 8
  ret void
}